target datalayout = "e-m:e-p270:32:32-p271:32:32-p272:64:64-i64:64-i128:128-f80:128-n8:16:32:64-S128"
target triple = "x86_64-pc-linux-gnu"

%struct.uv_loop_s = type { ptr, i32, [2 x ptr], %union.anon.2, ptr, i32, i64, i32, [2 x ptr], [2 x ptr], ptr, i32, i32, [2 x ptr], %union.pthread_mutex_t, %struct.uv_async_s, %union.pthread_rwlock_t, ptr, [2 x ptr], [2 x ptr], [2 x ptr], [2 x ptr], [2 x ptr], ptr, %struct.uv__io_s, i32, %struct.anon, i64, i64, [2 x i32], %struct.uv__io_s, %struct.uv_signal_s, i32, %struct.uv__io_s, ptr, i32 }
%union.anon.2 = type { ptr }
%union.pthread_mutex_t = type { %struct.__pthread_mutex_s }
%struct.__pthread_mutex_s = type { i32, i32, i32, i32, i32, i16, i16, %struct.__pthread_internal_list }
%struct.__pthread_internal_list = type { ptr, ptr }
%struct.uv_async_s = type { ptr, ptr, i32, ptr, [2 x ptr], %union.anon.3, ptr, i32, ptr, [2 x ptr], i32 }
%union.anon.3 = type { [4 x ptr] }
%union.pthread_rwlock_t = type { %struct.__pthread_rwlock_arch_t }
%struct.__pthread_rwlock_arch_t = type { i32, i32, i32, i32, i32, i32, i32, i32, i8, [7 x i8], i64, i32 }
%struct.anon = type { ptr, i32 }
%struct.uv_signal_s = type { ptr, ptr, i32, ptr, [2 x ptr], %union.anon.4, ptr, i32, ptr, i32, %struct.anon.5, i32, i32 }
%union.anon.4 = type { [4 x ptr] }
%struct.anon.5 = type { ptr, ptr, ptr, i32 }
%struct.uv__io_s = type { ptr, [2 x ptr], [2 x ptr], i32, i32, i32 }
%struct.uv_handle_s = type { ptr, ptr, i32, ptr, [2 x ptr], %union.anon.6, ptr, i32 }
%union.anon.6 = type { [4 x ptr] }

@default_loop_ptr = internal global ptr null, align 8
@default_loop_struct = internal global %struct.uv_loop_s zeroinitializer, align 8
@.str.165 = private unnamed_addr constant [6 x i8] c"async\00", align 1
@.str.166 = private unnamed_addr constant [6 x i8] c"check\00", align 1
@.str.167 = private unnamed_addr constant [9 x i8] c"fs_event\00", align 1
@.str.168 = private unnamed_addr constant [8 x i8] c"fs_poll\00", align 1
@.str.169 = private unnamed_addr constant [7 x i8] c"handle\00", align 1
@.str.170 = private unnamed_addr constant [5 x i8] c"idle\00", align 1
@.str.171 = private unnamed_addr constant [5 x i8] c"pipe\00", align 1
@.str.172 = private unnamed_addr constant [5 x i8] c"poll\00", align 1
@.str.173 = private unnamed_addr constant [8 x i8] c"prepare\00", align 1
@.str.174 = private unnamed_addr constant [8 x i8] c"process\00", align 1
@.str.175 = private unnamed_addr constant [7 x i8] c"stream\00", align 1
@.str.176 = private unnamed_addr constant [4 x i8] c"tcp\00", align 1
@.str.177 = private unnamed_addr constant [6 x i8] c"timer\00", align 1
@.str.178 = private unnamed_addr constant [4 x i8] c"tty\00", align 1
@.str.179 = private unnamed_addr constant [4 x i8] c"udp\00", align 1
@.str.180 = private unnamed_addr constant [7 x i8] c"signal\00", align 1
@.str.181 = private unnamed_addr constant [10 x i8] c"<unknown>\00", align 1
@.str.182 = private unnamed_addr constant [18 x i8] c"[%c%c%c] %-8s %p\0A\00", align 1
@.str.183 = private unnamed_addr constant [3 x i8] c"R-\00", align 1
@.str.184 = private unnamed_addr constant [3 x i8] c"A-\00", align 1
@.str.185 = private unnamed_addr constant [3 x i8] c"I-\00", align 1

; Function Attrs: nounwind uwtable
define dso_local ptr @uv_default_loop() #0 {
  %1 = alloca ptr, align 8
  %2 = load ptr, ptr @default_loop_ptr, align 8, !tbaa !52
  %3 = icmp ne ptr %2, null
  br i1 %3, label %4, label %6

4:                                                ; preds = %0
  %5 = load ptr, ptr @default_loop_ptr, align 8, !tbaa !52
  store ptr %5, ptr %1, align 8
  br label %12

6:                                                ; preds = %0
  %7 = call i32 @uv_loop_init(ptr noundef @default_loop_struct)
  %8 = icmp ne i32 %7, 0
  br i1 %8, label %9, label %10

9:                                                ; preds = %6
  store ptr null, ptr %1, align 8
  br label %12

10:                                               ; preds = %6
  store ptr @default_loop_struct, ptr @default_loop_ptr, align 8, !tbaa !52
  %11 = load ptr, ptr @default_loop_ptr, align 8, !tbaa !52
  store ptr %11, ptr %1, align 8
  br label %12

12:                                               ; preds = %10, %9, %4
  %13 = load ptr, ptr %1, align 8
  ret ptr %13
}

; Function Attrs: nounwind uwtable
define internal void @uv__print_handles(ptr noundef %0, i32 noundef %1, ptr noundef %2) #0 {
  %4 = alloca ptr, align 8
  %5 = alloca i32, align 4
  %6 = alloca ptr, align 8
  %7 = alloca ptr, align 8
  %8 = alloca ptr, align 8
  %9 = alloca ptr, align 8
  store ptr %0, ptr %4, align 8, !tbaa !52
  store i32 %1, ptr %5, align 4, !tbaa !15
  store ptr %2, ptr %6, align 8, !tbaa !68
  call void @llvm.lifetime.start.p0(i64 8, ptr %7) #13
  call void @llvm.lifetime.start.p0(i64 8, ptr %8) #13
  call void @llvm.lifetime.start.p0(i64 8, ptr %9) #13
  %10 = load ptr, ptr %4, align 8, !tbaa !52
  %11 = icmp eq ptr %10, null
  br i1 %11, label %12, label %14

12:                                               ; preds = %3
  %13 = call ptr @uv_default_loop()
  store ptr %13, ptr %4, align 8, !tbaa !52
  br label %14

14:                                               ; preds = %12, %3
  %15 = load ptr, ptr %4, align 8, !tbaa !52
  %16 = getelementptr inbounds nuw %struct.uv_loop_s, ptr %15, i32 0, i32 2
  %17 = getelementptr inbounds [2 x ptr], ptr %16, i64 0, i64 0
  %18 = load ptr, ptr %17, align 8, !tbaa !14
  store ptr %18, ptr %8, align 8, !tbaa !14
  br label %19

19:                                               ; preds = %95, %14
  %20 = load ptr, ptr %8, align 8, !tbaa !14
  %21 = load ptr, ptr %4, align 8, !tbaa !52
  %22 = getelementptr inbounds nuw %struct.uv_loop_s, ptr %21, i32 0, i32 2
  %23 = icmp ne ptr %20, %22
  br i1 %23, label %24, label %99

24:                                               ; preds = %19
  %25 = load ptr, ptr %8, align 8, !tbaa !14
  %26 = getelementptr inbounds i8, ptr %25, i64 -32
  store ptr %26, ptr %9, align 8, !tbaa !63
  %27 = load i32, ptr %5, align 4, !tbaa !15
  %28 = icmp ne i32 %27, 0
  br i1 %28, label %29, label %36

29:                                               ; preds = %24
  %30 = load ptr, ptr %9, align 8, !tbaa !63
  %31 = getelementptr inbounds nuw %struct.uv_handle_s, ptr %30, i32 0, i32 7
  %32 = load i32, ptr %31, align 8, !tbaa !64
  %33 = and i32 %32, 4
  %34 = icmp ne i32 %33, 0
  br i1 %34, label %36, label %35

35:                                               ; preds = %29
  br label %95

36:                                               ; preds = %29, %24
  %37 = load ptr, ptr %9, align 8, !tbaa !63
  %38 = getelementptr inbounds nuw %struct.uv_handle_s, ptr %37, i32 0, i32 2
  %39 = load i32, ptr %38, align 8, !tbaa !70
  switch i32 %39, label %56 [
    i32 1, label %40
    i32 2, label %41
    i32 3, label %42
    i32 4, label %43
    i32 5, label %44
    i32 6, label %45
    i32 7, label %46
    i32 8, label %47
    i32 9, label %48
    i32 10, label %49
    i32 11, label %50
    i32 12, label %51
    i32 13, label %52
    i32 14, label %53
    i32 15, label %54
    i32 16, label %55
  ]

40:                                               ; preds = %36
  store ptr @.str.165, ptr %7, align 8, !tbaa !4
  br label %57

41:                                               ; preds = %36
  store ptr @.str.166, ptr %7, align 8, !tbaa !4
  br label %57

42:                                               ; preds = %36
  store ptr @.str.167, ptr %7, align 8, !tbaa !4
  br label %57

43:                                               ; preds = %36
  store ptr @.str.168, ptr %7, align 8, !tbaa !4
  br label %57

44:                                               ; preds = %36
  store ptr @.str.169, ptr %7, align 8, !tbaa !4
  br label %57

45:                                               ; preds = %36
  store ptr @.str.170, ptr %7, align 8, !tbaa !4
  br label %57

46:                                               ; preds = %36
  store ptr @.str.171, ptr %7, align 8, !tbaa !4
  br label %57

47:                                               ; preds = %36
  store ptr @.str.172, ptr %7, align 8, !tbaa !4
  br label %57

48:                                               ; preds = %36
  store ptr @.str.173, ptr %7, align 8, !tbaa !4
  br label %57

49:                                               ; preds = %36
  store ptr @.str.174, ptr %7, align 8, !tbaa !4
  br label %57

50:                                               ; preds = %36
  store ptr @.str.175, ptr %7, align 8, !tbaa !4
  br label %57

51:                                               ; preds = %36
  store ptr @.str.176, ptr %7, align 8, !tbaa !4
  br label %57

52:                                               ; preds = %36
  store ptr @.str.177, ptr %7, align 8, !tbaa !4
  br label %57

53:                                               ; preds = %36
  store ptr @.str.178, ptr %7, align 8, !tbaa !4
  br label %57

54:                                               ; preds = %36
  store ptr @.str.179, ptr %7, align 8, !tbaa !4
  br label %57

55:                                               ; preds = %36
  store ptr @.str.180, ptr %7, align 8, !tbaa !4
  br label %57

56:                                               ; preds = %36
  store ptr @.str.181, ptr %7, align 8, !tbaa !4
  br label %57

57:                                               ; preds = %56, %55, %54, %53, %52, %51, %50, %49, %48, %47, %46, %45, %44, %43, %42, %41, %40
  %58 = load ptr, ptr %6, align 8, !tbaa !68
  %59 = load ptr, ptr %9, align 8, !tbaa !63
  %60 = getelementptr inbounds nuw %struct.uv_handle_s, ptr %59, i32 0, i32 7
  %61 = load i32, ptr %60, align 8, !tbaa !64
  %62 = and i32 %61, 8
  %63 = icmp ne i32 %62, 0
  %64 = xor i1 %63, true
  %65 = zext i1 %64 to i32
  %66 = sext i32 %65 to i64
  %67 = getelementptr inbounds [3 x i8], ptr @.str.183, i64 0, i64 %66
  %68 = load i8, ptr %67, align 1, !tbaa !13
  %69 = sext i8 %68 to i32
  %70 = load ptr, ptr %9, align 8, !tbaa !63
  %71 = getelementptr inbounds nuw %struct.uv_handle_s, ptr %70, i32 0, i32 7
  %72 = load i32, ptr %71, align 8, !tbaa !64
  %73 = and i32 %72, 4
  %74 = icmp ne i32 %73, 0
  %75 = xor i1 %74, true
  %76 = zext i1 %75 to i32
  %77 = sext i32 %76 to i64
  %78 = getelementptr inbounds [3 x i8], ptr @.str.184, i64 0, i64 %77
  %79 = load i8, ptr %78, align 1, !tbaa !13
  %80 = sext i8 %79 to i32
  %81 = load ptr, ptr %9, align 8, !tbaa !63
  %82 = getelementptr inbounds nuw %struct.uv_handle_s, ptr %81, i32 0, i32 7
  %83 = load i32, ptr %82, align 8, !tbaa !64
  %84 = and i32 %83, 16
  %85 = icmp ne i32 %84, 0
  %86 = xor i1 %85, true
  %87 = zext i1 %86 to i32
  %88 = sext i32 %87 to i64
  %89 = getelementptr inbounds [3 x i8], ptr @.str.185, i64 0, i64 %88
  %90 = load i8, ptr %89, align 1, !tbaa !13
  %91 = sext i8 %90 to i32
  %92 = load ptr, ptr %7, align 8, !tbaa !4
  %93 = load ptr, ptr %9, align 8, !tbaa !63
  %94 = call i32 (ptr, ptr, ...) @fprintf(ptr noundef %58, ptr noundef @.str.182, i32 noundef %69, i32 noundef %80, i32 noundef %91, ptr noundef %92, ptr noundef %93) #13
  br label %95

95:                                               ; preds = %57, %35
  %96 = load ptr, ptr %8, align 8, !tbaa !14
  %97 = getelementptr inbounds [2 x ptr], ptr %96, i64 0, i64 0
  %98 = load ptr, ptr %97, align 8, !tbaa !14
  store ptr %98, ptr %8, align 8, !tbaa !14
  br label %19, !llvm.loop !71

99:                                               ; preds = %19
  call void @llvm.lifetime.end.p0(i64 8, ptr %9) #13
  call void @llvm.lifetime.end.p0(i64 8, ptr %8) #13
  call void @llvm.lifetime.end.p0(i64 8, ptr %7) #13
  ret void
}