; Function Attrs: nounwind uwtable
define internal fastcc void @uv__print_handles(ptr noundef readonly %0, i32 noundef range(i32 0, 2) %1, ptr noundef captures(none) %2) unnamed_addr #0 {
  %4 = icmp eq ptr %0, null
  br i1 %4, label %5, label %uv_default_loop.exit

5:                                                ; preds = %3
  %6 = load ptr, ptr @default_loop_ptr, align 8, !tbaa !44
  %.not.i = icmp eq ptr %6, null
  br i1 %.not.i, label %7, label %uv_default_loop.exit

7:                                                ; preds = %5
  %8 = tail call i32 @uv_loop_init(ptr noundef nonnull @default_loop_struct) #26
  %.not2.i = icmp eq i32 %8, 0
  tail call void @llvm.assume(i1 %.not2.i)
  store ptr @default_loop_struct, ptr @default_loop_ptr, align 8, !tbaa !44
  br label %uv_default_loop.exit

uv_default_loop.exit:                             ; preds = %7, %5, %3
  %.0 = phi ptr [ %0, %3 ], [ @default_loop_struct, %7 ], [ %6, %5 ]
  %9 = getelementptr inbounds nuw i8, ptr %.0, i64 16
  %.01424 = load ptr, ptr %9, align 8, !tbaa !39
  %.not25 = icmp eq ptr %.01424, %9
  br i1 %.not25, label %._crit_edge, label %.lr.ph

.lr.ph:                                           ; preds = %uv_default_loop.exit
  %.not17 = icmp eq i32 %1, 0
  br i1 %.not17, label %.lr.ph.split.us, label %.lr.ph.split

.lr.ph.split.us:                                  ; preds = %.lr.ph, %15
  %.01426.us = phi ptr [ %.014.us, %15 ], [ %.01424, %.lr.ph ]
  %10 = getelementptr inbounds i8, ptr %.01426.us, i64 -32
  %11 = getelementptr inbounds i8, ptr %.01426.us, i64 -16
  %12 = load i32, ptr %11, align 8, !tbaa !45
  %switch.tableidx = add i32 %12, -1
  %13 = icmp ult i32 %switch.tableidx, 16
  br i1 %13, label %switch.lookup, label %15

switch.lookup:                                    ; preds = %.lr.ph.split.us
  %14 = zext nneg i32 %switch.tableidx to i64
  %switch.gep = getelementptr inbounds nuw [16 x ptr], ptr @switch.table.uv__print_handles.1, i64 0, i64 %14
  %switch.load = load ptr, ptr %switch.gep, align 8
  br label %15

15:                                               ; preds = %.lr.ph.split.us, %switch.lookup
  %.015.us = phi ptr [ %switch.load, %switch.lookup ], [ @.str.181, %.lr.ph.split.us ]
  %16 = getelementptr inbounds nuw i8, ptr %.01426.us, i64 56
  %17 = load i32, ptr %16, align 8, !tbaa !40
  %18 = lshr i32 %17, 3
  %.lobit.us = and i32 %18, 1
  %19 = xor i32 %.lobit.us, 1
  %20 = zext nneg i32 %19 to i64
  %21 = getelementptr inbounds nuw [3 x i8], ptr @.str.183, i64 0, i64 %20
  %22 = load i8, ptr %21, align 1, !tbaa !9
  %23 = sext i8 %22 to i32
  %24 = lshr i32 %17, 2
  %.lobit21.us = and i32 %24, 1
  %25 = xor i32 %.lobit21.us, 1
  %26 = zext nneg i32 %25 to i64
  %27 = getelementptr inbounds nuw [3 x i8], ptr @.str.184, i64 0, i64 %26
  %28 = load i8, ptr %27, align 1, !tbaa !9
  %29 = sext i8 %28 to i32
  %30 = lshr i32 %17, 4
  %.lobit23.us = and i32 %30, 1
  %31 = xor i32 %.lobit23.us, 1
  %32 = zext nneg i32 %31 to i64
  %33 = getelementptr inbounds nuw [3 x i8], ptr @.str.185, i64 0, i64 %32
  %34 = load i8, ptr %33, align 1, !tbaa !9
  %35 = sext i8 %34 to i32
  %36 = tail call i32 (ptr, ptr, ...) @fprintf(ptr noundef %2, ptr noundef nonnull @.str.182, i32 noundef %23, i32 noundef %29, i32 noundef %35, ptr noundef nonnull %.015.us, ptr noundef nonnull %10) #26
  %.014.us = load ptr, ptr %.01426.us, align 8, !tbaa !39
  %.not.us = icmp eq ptr %.014.us, %9
  br i1 %.not.us, label %._crit_edge, label %.lr.ph.split.us, !llvm.loop !46

.lr.ph.split:                                     ; preds = %.lr.ph, %60
  %.01426 = phi ptr [ %.014, %60 ], [ %.01424, %.lr.ph ]
  %37 = getelementptr inbounds i8, ptr %.01426, i64 -32
  %38 = getelementptr inbounds nuw i8, ptr %.01426, i64 56
  %39 = load i32, ptr %38, align 8, !tbaa !40
  %40 = and i32 %39, 4
  %.not18 = icmp eq i32 %40, 0
  br i1 %.not18, label %60, label %41

41:                                               ; preds = %.lr.ph.split
  %42 = getelementptr inbounds i8, ptr %.01426, i64 -16
  %43 = load i32, ptr %42, align 8, !tbaa !45
  %switch.tableidx31 = add i32 %43, -1
  %44 = icmp ult i32 %switch.tableidx31, 16
  br i1 %44, label %switch.lookup30, label %46

switch.lookup30:                                  ; preds = %41
  %45 = zext nneg i32 %switch.tableidx31 to i64
  %switch.gep32 = getelementptr inbounds nuw [16 x ptr], ptr @switch.table.uv__print_handles.1, i64 0, i64 %45
  %switch.load33 = load ptr, ptr %switch.gep32, align 8
  br label %46

46:                                               ; preds = %41, %switch.lookup30
  %.015 = phi ptr [ %switch.load33, %switch.lookup30 ], [ @.str.181, %41 ]
  %47 = lshr i32 %39, 3
  %.lobit = and i32 %47, 1
  %48 = xor i32 %.lobit, 1
  %49 = zext nneg i32 %48 to i64
  %50 = getelementptr inbounds nuw [3 x i8], ptr @.str.183, i64 0, i64 %49
  %51 = load i8, ptr %50, align 1, !tbaa !9
  %52 = sext i8 %51 to i32
  %53 = lshr i32 %39, 4
  %.lobit23 = and i32 %53, 1
  %54 = xor i32 %.lobit23, 1
  %55 = zext nneg i32 %54 to i64
  %56 = getelementptr inbounds nuw [3 x i8], ptr @.str.185, i64 0, i64 %55
  %57 = load i8, ptr %56, align 1, !tbaa !9
  %58 = sext i8 %57 to i32
  %59 = tail call i32 (ptr, ptr, ...) @fprintf(ptr noundef %2, ptr noundef nonnull @.str.182, i32 noundef %52, i32 noundef 65, i32 noundef %58, ptr noundef nonnull %.015, ptr noundef nonnull %37) #26
  br label %60

60:                                               ; preds = %.lr.ph.split, %46
  %.014 = load ptr, ptr %.01426, align 8, !tbaa !39
  %.not = icmp eq ptr %.014, %9
  br i1 %.not, label %._crit_edge, label %.lr.ph.split, !llvm.loop !46

._crit_edge:                                      ; preds = %60, %15, %uv_default_loop.exit
  ret void
}